; Function Attrs: mustprogress uwtable
define hidden noundef nonnull ptr @_Z17luaO_pushvfstringP9lua_StatePKcP13__va_list_tag(ptr noundef %0, ptr noundef readonly captures(none) %1, ptr noundef %2) local_unnamed_addr #6 {
  %4 = alloca [512 x i8], align 16
  call void @llvm.lifetime.start.p0(i64 512, ptr nonnull %4) #15
  %5 = call i32 @vsnprintf(ptr noundef nonnull %4, i64 noundef 512, ptr noundef %1, ptr noundef %2) #15
  %6 = getelementptr inbounds nuw i8, ptr %0, i64 8
  %7 = load ptr, ptr %6, align 8, !tbaa !21
  %8 = call i64 @strlen(ptr noundef nonnull dereferenceable(1) %4) #16
  %9 = call noundef ptr @_Z12luaS_newlstrP9lua_StatePKcm(ptr noundef %0, ptr noundef nonnull %4, i64 noundef %8)
  store ptr %9, ptr %7, align 8, !tbaa !6
  %10 = getelementptr inbounds nuw i8, ptr %7, i64 12
  store i32 5, ptr %10, align 4, !tbaa !9
  %11 = getelementptr inbounds nuw i8, ptr %0, i64 40
  %12 = load ptr, ptr %11, align 8, !tbaa !32
  %13 = load ptr, ptr %6, align 8, !tbaa !21
  %14 = ptrtoint ptr %12 to i64
  %15 = ptrtoint ptr %13 to i64
  %16 = sub i64 %14, %15
  %17 = icmp slt i64 %16, 17
  br i1 %17, label %18, label %19

18:                                               ; preds = %3
  call void @_Z14luaD_growstackP9lua_Statei(ptr noundef nonnull %0, i32 noundef 1)
  %.pre = load ptr, ptr %6, align 8, !tbaa !21
  br label %19

19:                                               ; preds = %3, %18
  %20 = phi ptr [ %13, %3 ], [ %.pre, %18 ]
  %21 = getelementptr inbounds nuw i8, ptr %20, i64 16
  store ptr %21, ptr %6, align 8, !tbaa !21
  %22 = load ptr, ptr %20, align 8, !tbaa !6
  %23 = getelementptr inbounds nuw i8, ptr %22, i64 24
  call void @llvm.lifetime.end.p0(i64 512, ptr nonnull %4) #15
  ret ptr %23
}